; Function Attrs: mustprogress uwtable
define hidden void @_ZN2cv10BRISK_ImplC2Eiif(ptr noundef nonnull align 8 dereferenceable(96) %0, ptr noundef %1, i32 noundef %2, i32 noundef %3, float noundef %4) unnamed_addr #0 align 2 personality ptr @__gxx_personality_v0 {
  %6 = getelementptr inbounds i8, ptr %1, i64 8
  %7 = getelementptr inbounds i8, ptr %1, i64 16
  %8 = load ptr, ptr %7, align 8
  store ptr %8, ptr %0, align 8
  %9 = getelementptr inbounds i8, ptr %1, i64 24
  %10 = load ptr, ptr %9, align 8
  %11 = getelementptr i8, ptr %8, i64 -80
  %12 = load i64, ptr %11, align 8
  %13 = getelementptr inbounds i8, ptr %0, i64 %12
  store ptr %10, ptr %13, align 8
  %14 = load ptr, ptr %6, align 8
  store ptr %14, ptr %0, align 8
  %15 = getelementptr inbounds i8, ptr %1, i64 32
  %16 = load ptr, ptr %15, align 8
  %17 = getelementptr i8, ptr %14, i64 -80
  %18 = load i64, ptr %17, align 8
  %19 = getelementptr inbounds i8, ptr %0, i64 %18
  store ptr %16, ptr %19, align 8
  %20 = load ptr, ptr %1, align 8
  store ptr %20, ptr %0, align 8
  %21 = getelementptr inbounds i8, ptr %1, i64 40
  %22 = load ptr, ptr %21, align 8
  %23 = getelementptr i8, ptr %20, i64 -80
  %24 = load i64, ptr %23, align 8
  %25 = getelementptr inbounds i8, ptr %0, i64 %24
  store ptr %22, ptr %25, align 8
  %26 = getelementptr inbounds i8, ptr %0, i64 8
  store i32 %2, ptr %26, align 8
  %27 = getelementptr inbounds i8, ptr %0, i64 12
  store i32 %3, ptr %27, align 4
  invoke void @_ZN2cv10BRISK_Impl15setPatternScaleEf(ptr noundef nonnull align 8 dereferenceable(96) %0, float noundef %4)
          to label %28 unwind label %29

28:                                               ; preds = %5
  ret void

29:                                               ; preds = %5
  %30 = landingpad { ptr, i32 }
          cleanup
  tail call void @_ZN2cv9Feature2DD2Ev(ptr noundef nonnull align 8 dereferenceable(8) %0, ptr noundef nonnull %7) #22
  resume { ptr, i32 } %30
}